; Function Attrs: mustprogress uwtable
define dso_local void @_ZNK4pbrt18IndependentSampler8ToStringB5cxx11Ev(ptr dead_on_unwind noalias writable sret(%"class.std::__cxx11::basic_string") align 8 %0, ptr noundef nonnull align 8 dereferenceable(24) %1) local_unnamed_addr #0 align 2 personality ptr @__gxx_personality_v0 {
  %3 = getelementptr inbounds nuw i8, ptr %1, i64 4
  %4 = getelementptr inbounds nuw i8, ptr %1, i64 8
  %5 = getelementptr inbounds nuw i8, ptr %0, i64 16
  store ptr %5, ptr %0, align 8, !tbaa !60, !alias.scope !211
  %6 = getelementptr inbounds nuw i8, ptr %0, i64 8
  store i64 0, ptr %6, align 8, !tbaa !64, !alias.scope !211
  store i8 0, ptr %5, align 8, !tbaa !66, !alias.scope !211
  invoke void @_ZN4pbrt6detail21stringPrintfRecursiveIRKiJS3_RKNS_3RNGEEEEvPNSt7__cxx1112basic_stringIcSt11char_traitsIcESaIcEEEPKcOT_DpOT0_(ptr noundef nonnull align 8 %0, ptr noundef nonnull @.str.26, ptr noundef nonnull align 4 dereferenceable(4) %1, ptr noundef nonnull align 4 dereferenceable(4) %3, ptr noundef nonnull align 8 dereferenceable(16) %4)
          to label %_ZN4pbrt12StringPrintfIJRKiS2_RKNS_3RNGEEEENSt7__cxx1112basic_stringIcSt11char_traitsIcESaIcEEEPKcDpOT_.exit unwind label %7

7:                                                ; preds = %2
  %8 = landingpad { ptr, i32 }
          cleanup
  %9 = load ptr, ptr %0, align 8, !tbaa !78, !alias.scope !211
  %10 = icmp eq ptr %9, %5
  br i1 %10, label %_ZNKSt7__cxx1112basic_stringIcSt11char_traitsIcESaIcEE11_M_is_localEv.exit.thread.i.i.i, label %_ZNKSt7__cxx1112basic_stringIcSt11char_traitsIcESaIcEE11_M_is_localEv.exit.i.i.i

_ZNKSt7__cxx1112basic_stringIcSt11char_traitsIcESaIcEE11_M_is_localEv.exit.thread.i.i.i: ; preds = %7
  %11 = load i64, ptr %6, align 8, !tbaa !64, !alias.scope !211
  %12 = icmp ult i64 %11, 16
  tail call void @llvm.assume(i1 %12)
  br label %_ZNSt7__cxx1112basic_stringIcSt11char_traitsIcESaIcEED2Ev.exit.i

_ZNKSt7__cxx1112basic_stringIcSt11char_traitsIcESaIcEE11_M_is_localEv.exit.i.i.i: ; preds = %7
  %13 = load i64, ptr %5, align 8, !tbaa !66, !alias.scope !211
  %14 = add i64 %13, 1
  tail call void @_ZdlPvm(ptr noundef %9, i64 noundef %14) #28
  br label %_ZNSt7__cxx1112basic_stringIcSt11char_traitsIcESaIcEED2Ev.exit.i

_ZNSt7__cxx1112basic_stringIcSt11char_traitsIcESaIcEED2Ev.exit.i: ; preds = %_ZNKSt7__cxx1112basic_stringIcSt11char_traitsIcESaIcEE11_M_is_localEv.exit.i.i.i, %_ZNKSt7__cxx1112basic_stringIcSt11char_traitsIcESaIcEE11_M_is_localEv.exit.thread.i.i.i
  resume { ptr, i32 } %8

_ZN4pbrt12StringPrintfIJRKiS2_RKNS_3RNGEEEENSt7__cxx1112basic_stringIcSt11char_traitsIcESaIcEEEPKcDpOT_.exit: ; preds = %2
  ret void
}